; Function Attrs: mustprogress uwtable
define hidden void @_ZN5model18copy_usort_interpsERKS_(ptr noundef nonnull align 8 dereferenceable(160) %this, ptr nocapture noundef nonnull readonly align 8 dereferenceable(160) %source) local_unnamed_addr #3 align 2 {
entry:
  %m_usort2universe = getelementptr inbounds i8, ptr %source, i64 104
  %0 = load ptr, ptr %m_usort2universe, align 8
  %m_capacity.i.i = getelementptr inbounds i8, ptr %source, i64 112
  %1 = load i32, ptr %m_capacity.i.i, align 8
  %idx.ext.i.i = zext i32 %1 to i64
  %add.ptr.i.i = getelementptr inbounds %"class.obj_map<sort, ptr_vector<expr> *>::obj_map_entry", ptr %0, i64 %idx.ext.i.i
  %cmp.not2.i.i.i.i = icmp eq i32 %1, 0
  br i1 %cmp.not2.i.i.i.i, label %_ZNK7obj_mapI4sortP10ptr_vectorI4exprEE5beginEv.exit, label %land.rhs.i.i.i.i

land.rhs.i.i.i.i:                                 ; preds = %entry, %while.body.i.i.i.i
  %retval.sroa.0.0.i.i = phi ptr [ %incdec.ptr.i.i.i.i, %while.body.i.i.i.i ], [ %0, %entry ]
  %2 = load ptr, ptr %retval.sroa.0.0.i.i, align 8
  %switch.i.i.i.i = icmp ult ptr %2, inttoptr (i64 2 to ptr)
  br i1 %switch.i.i.i.i, label %while.body.i.i.i.i, label %_ZNK7obj_mapI4sortP10ptr_vectorI4exprEE5beginEv.exit

while.body.i.i.i.i:                               ; preds = %land.rhs.i.i.i.i
  %incdec.ptr.i.i.i.i = getelementptr inbounds i8, ptr %retval.sroa.0.0.i.i, i64 16
  %cmp.not.i.i.i.i = icmp eq ptr %incdec.ptr.i.i.i.i, %add.ptr.i.i
  br i1 %cmp.not.i.i.i.i, label %for.end, label %land.rhs.i.i.i.i, !llvm.loop !4

_ZNK7obj_mapI4sortP10ptr_vectorI4exprEE5beginEv.exit: ; preds = %land.rhs.i.i.i.i, %entry
  %retval.sroa.0.1.i.i = phi ptr [ %0, %entry ], [ %retval.sroa.0.0.i.i, %land.rhs.i.i.i.i ]
  %cmp.i.not12 = icmp eq ptr %retval.sroa.0.1.i.i, %add.ptr.i.i
  br i1 %cmp.i.not12, label %for.end, label %for.body

for.body:                                         ; preds = %_ZNK7obj_mapI4sortP10ptr_vectorI4exprEE5beginEv.exit, %_ZN14core_hashtableIN7obj_mapI4sortP10ptr_vectorI4exprEE13obj_map_entryE8obj_hashINS6_8key_dataEE10default_eqIS9_EE8iteratorppEv.exit
  %__begin1.sroa.0.013 = phi ptr [ %__begin1.sroa.0.1, %_ZN14core_hashtableIN7obj_mapI4sortP10ptr_vectorI4exprEE13obj_map_entryE8obj_hashINS6_8key_dataEE10default_eqIS9_EE8iteratorppEv.exit ], [ %retval.sroa.0.1.i.i, %_ZNK7obj_mapI4sortP10ptr_vectorI4exprEE5beginEv.exit ]
  %3 = load ptr, ptr %__begin1.sroa.0.013, align 8
  %m_value = getelementptr inbounds i8, ptr %__begin1.sroa.0.013, i64 8
  %4 = load ptr, ptr %m_value, align 8
  %5 = load ptr, ptr %4, align 8
  %cmp.i9 = icmp eq ptr %5, null
  br i1 %cmp.i9, label %_ZNK6vectorIP4exprLb0EjE4sizeEv.exit, label %if.end.i

if.end.i:                                         ; preds = %for.body
  %arrayidx.i = getelementptr inbounds i8, ptr %5, i64 -4
  %6 = load i32, ptr %arrayidx.i, align 4
  br label %_ZNK6vectorIP4exprLb0EjE4sizeEv.exit

_ZNK6vectorIP4exprLb0EjE4sizeEv.exit:             ; preds = %for.body, %if.end.i
  %retval.0.i = phi i32 [ %6, %if.end.i ], [ 0, %for.body ]
  tail call void @_ZN5model14register_usortEP4sortjPKP4expr(ptr noundef nonnull align 8 dereferenceable(160) %this, ptr noundef %3, i32 noundef %retval.0.i, ptr noundef %5)
  %incdec.ptr.i = getelementptr inbounds i8, ptr %__begin1.sroa.0.013, i64 16
  %cmp.not2.i.i = icmp eq ptr %incdec.ptr.i, %add.ptr.i.i
  br i1 %cmp.not2.i.i, label %for.end, label %land.rhs.i.i

land.rhs.i.i:                                     ; preds = %_ZNK6vectorIP4exprLb0EjE4sizeEv.exit, %while.body.i.i
  %__begin1.sroa.0.1 = phi ptr [ %incdec.ptr.i.i, %while.body.i.i ], [ %incdec.ptr.i, %_ZNK6vectorIP4exprLb0EjE4sizeEv.exit ]
  %7 = load ptr, ptr %__begin1.sroa.0.1, align 8
  %switch.i.i = icmp ult ptr %7, inttoptr (i64 2 to ptr)
  br i1 %switch.i.i, label %while.body.i.i, label %_ZN14core_hashtableIN7obj_mapI4sortP10ptr_vectorI4exprEE13obj_map_entryE8obj_hashINS6_8key_dataEE10default_eqIS9_EE8iteratorppEv.exit

while.body.i.i:                                   ; preds = %land.rhs.i.i
  %incdec.ptr.i.i = getelementptr inbounds i8, ptr %__begin1.sroa.0.1, i64 16
  %cmp.not.i.i = icmp eq ptr %incdec.ptr.i.i, %add.ptr.i.i
  br i1 %cmp.not.i.i, label %for.end, label %land.rhs.i.i, !llvm.loop !4

_ZN14core_hashtableIN7obj_mapI4sortP10ptr_vectorI4exprEE13obj_map_entryE8obj_hashINS6_8key_dataEE10default_eqIS9_EE8iteratorppEv.exit: ; preds = %land.rhs.i.i
  %cmp.i.not = icmp eq ptr %__begin1.sroa.0.1, %add.ptr.i.i
  br i1 %cmp.i.not, label %for.end, label %for.body

for.end:                                          ; preds = %while.body.i.i.i.i, %_ZNK6vectorIP4exprLb0EjE4sizeEv.exit, %_ZN14core_hashtableIN7obj_mapI4sortP10ptr_vectorI4exprEE13obj_map_entryE8obj_hashINS6_8key_dataEE10default_eqIS9_EE8iteratorppEv.exit, %while.body.i.i, %_ZNK7obj_mapI4sortP10ptr_vectorI4exprEE5beginEv.exit
  ret void
}